Certificate:
    Data:
        Version: 3 (0x2)
        Serial Number: 26 (0x1a)
    Signature Algorithm: sha256WithRSAEncryption
        Issuer: C=CN, ST=GD, L=Shenzhen, O=Conwin, OU=jingyun.cn, CN=root-ca
        Validity
            Not Before: Feb 10 03:35:47 2017 GMT
            Not After : Feb  8 03:35:47 2027 GMT
        Subject: C=CN, ST=GD, O=Conwin, OU=jingyun.cn, CN=IOS
        Subject Public Key Info:
            Public Key Algorithm: rsaEncryption
                Public-Key: (2048 bit)
                Modulus:
                    00:df:43:eb:83:53:e9:3d:c7:0f:a6:ef:9f:bd:70:
                    c1:67:6a:43:88:f7:0b:84:63:58:fc:5d:ab:e5:0b:
                    38:df:f0:24:a8:0f:19:5e:47:c9:a1:56:81:2a:8f:
                    00:89:d6:5c:84:eb:53:a9:a2:26:e1:e9:61:05:5a:
                    2f:e9:e6:89:1e:86:5f:24:d8:5a:f9:d1:90:58:2c:
                    f7:45:df:d2:5f:ab:a0:b7:43:42:40:6b:78:d4:2f:
                    af:2a:79:09:fc:5f:19:71:7e:ea:99:25:49:17:0c:
                    c1:69:26:a5:36:bf:3a:3e:77:9d:b1:8a:69:2e:2e:
                    13:4c:20:17:7a:65:ae:21:0c:63:8d:3d:21:39:5d:
                    e7:db:2a:24:61:c5:70:33:56:8f:8c:ba:ad:c9:9a:
                    5a:92:e7:4a:2b:bd:71:2e:5b:a5:8e:97:05:71:b4:
                    57:cd:19:07:ad:4b:e1:ef:28:94:89:17:49:13:64:
                    0f:49:43:83:0a:7e:db:a2:fe:db:1b:8f:a9:d8:39:
                    c7:fe:c3:21:63:0a:34:35:24:b3:89:b3:8a:78:1a:
                    53:7b:19:03:9b:0f:33:27:f6:10:ff:dd:05:f9:5a:
                    90:22:25:8b:7d:69:63:d7:9d:2d:3d:52:a7:c1:e3:
                    1e:7a:1b:e5:69:00:8d:1d:e8:88:eb:58:26:81:d2:
                    dc:8f
                Exponent: 65537 (0x10001)
        X509v3 extensions:
            X509v3 Basic Constraints: 
                CA:FALSE
            Netscape Comment: 
                OpenSSL Generated Certificate
            X509v3 Subject Key Identifier: 
                79:D5:37:18:E6:47:33:87:AA:70:45:54:3D:29:66:FD:F4:64:3A:B2
            X509v3 Authority Key Identifier: 
                keyid:4F:5F:1A:BB:9F:00:83:DF:CB:F8:82:07:8E:4E:28:F5:94:5F:85:97

    Signature Algorithm: sha256WithRSAEncryption
         05:03:61:35:97:99:95:87:93:c0:79:6a:01:a8:96:ed:d7:b9:
         46:79:5a:09:1d:7d:13:85:43:88:9e:bc:f5:3f:9b:31:c6:b7:
         97:d4:8a:59:bd:0f:41:80:df:74:8c:4c:8c:0d:cc:8c:67:7f:
         88:95:4d:ea:6d:6e:01:f9:56:2b:ab:68:66:6b:7e:27:f6:84:
         76:14:7f:11:a6:3a:f3:27:6b:12:06:d3:4c:65:c8:22:8c:ef:
         85:ad:f7:ae:bb:dc:4e:10:26:0d:ca:49:5f:19:e6:44:a8:2e:
         e0:38:f3:81:e7:31:16:12:80:24:f7:22:bb:05:63:40:48:34:
         ca:c8:f5:58:3f:ac:fa:db:18:3a:90:5f:b0:69:be:cc:e6:ab:
         58:de:2c:3e:e1:9d:77:6f:7f:f3:5b:46:a8:a8:b5:71:4c:3b:
         4f:98:40:da:e7:05:ac:fd:ce:f7:13:42:b2:1b:80:eb:16:e4:
         68:de:48:bd:cb:64:aa:f9:e4:a0:63:b9:b1:01:17:16:e0:f6:
         ca:67:f9:09:dc:36:06:e7:b8:29:35:be:8c:29:ca:29:82:6a:
         df:13:d7:88:b0:31:dc:17:6a:eb:3b:96:d7:ce:4d:f4:c8:55:
         0c:8a:9d:73:41:48:e5:ba:8f:ee:be:b7:7e:30:16:bc:c8:5a:
         9f:a3:72:c8
-----BEGIN CERTIFICATE-----
MIIDqTCCApGgAwIBAgIBGjANBgkqhkiG9w0BAQsFADBlMQswCQYDVQQGEwJDTjEL
MAkGA1UECAwCR0QxETAPBgNVBAcMCFNoZW56aGVuMQ8wDQYDVQQKDAZDb253aW4x
EzARBgNVBAsMCmppbmd5dW4uY24xEDAOBgNVBAMMB3Jvb3QtY2EwHhcNMTcwMjEw
MDMzNTQ3WhcNMjcwMjA4MDMzNTQ3WjBOMQswCQYDVQQGEwJDTjELMAkGA1UECAwC
R0QxDzANBgNVBAoMBkNvbndpbjETMBEGA1UECwwKamluZ3l1bi5jbjEMMAoGA1UE
AwwDSU9TMIIBIjANBgkqhkiG9w0BAQEFAAOCAQ8AMIIBCgKCAQEA30Prg1PpPccP
pu+fvXDBZ2pDiPcLhGNY/F2r5Qs43/AkqA8ZXkfJoVaBKo8AidZchOtTqaIm4elh
BVov6eaJHoZfJNha+dGQWCz3Rd/SX6ugt0NCQGt41C+vKnkJ/F8ZcX7qmSVJFwzB
aSalNr86PnedsYppLi4TTCAXemWuIQxjjT0hOV3n2yokYcVwM1aPjLqtyZpakudK
K71xLluljpcFcbRXzRkHrUvh7yiUiRdJE2QPSUODCn7bov7bG4+p2DnH/sMhYwo0
NSSzibOKeBpTexkDmw8zJ/YQ/90F+VqQIiWLfWlj150tPVKnweMeehvlaQCNHeiI
61gmgdLcjwIDAQABo3sweTAJBgNVHRMEAjAAMCwGCWCGSAGG+EIBDQQfFh1PcGVu
U1NMIEdlbmVyYXRlZCBDZXJ0aWZpY2F0ZTAdBgNVHQ4EFgQUedU3GOZHM4eqcEVU
PSlm/fRkOrIwHwYDVR0jBBgwFoAUT18au58Ag9/L+IIHjk4o9ZRfhZcwDQYJKoZI
hvcNAQELBQADggEBAAUDYTWXmZWHk8B5agGolu3XuUZ5WgkdfROFQ4ievPU/mzHG
t5fUilm9D0GA33SMTIwNzIxnf4iVTeptbgH5ViuraGZrfif2hHYUfxGmOvMnaxIG
00xlyCKM74Wt96673E4QJg3KSV8Z5kSoLuA484HnMRYSgCT3IrsFY0BINMrI9Vg/
rPrbGDqQX7Bpvszmq1jeLD7hnXdvf/NbRqiotXFMO0+YQNrnBaz9zvcTQrIbgOsW
5GjeSL3LZKr55KBjubEBFxbg9spn+QncNgbnuCk1vowpyimCat8T14iwMdwXaus7
ltfOTfTIVQyKnXNBSOW6j+6+t34wFrzIWp+jcsg=
-----END CERTIFICATE-----
